target datalayout = "e-m:e-p270:32:32-p271:32:32-p272:64:64-i64:64-i128:128-f80:128-n8:16:32:64-S128"
target triple = "x86_64-pc-linux-gnu"

@sane_ctype = external constant [256 x i8], align 16
@.str.20 = private unnamed_addr constant [7 x i8] c"author\00", align 1
@.str.42 = private unnamed_addr constant [10 x i8] c"committer\00", align 1

; Function Attrs: nounwind uwtable
define internal i64 @parse_commit_date(ptr noundef %0, ptr noundef %1) #0 {
  %3 = alloca i64, align 8
  %4 = alloca ptr, align 8
  %5 = alloca ptr, align 8
  %6 = alloca ptr, align 8
  %7 = alloca ptr, align 8
  %8 = alloca i32, align 4
  store ptr %0, ptr %4, align 8, !tbaa !15
  store ptr %1, ptr %5, align 8, !tbaa !15
  call void @llvm.lifetime.start.p0(i64 8, ptr %6) #11
  call void @llvm.lifetime.start.p0(i64 8, ptr %7) #11
  %9 = load ptr, ptr %4, align 8, !tbaa !15
  %10 = getelementptr inbounds i8, ptr %9, i64 6
  %11 = load ptr, ptr %5, align 8, !tbaa !15
  %12 = icmp uge ptr %10, %11
  br i1 %12, label %13, label %14

13:                                               ; preds = %2
  store i64 0, ptr %3, align 8
  store i32 1, ptr %8, align 4
  br label %114

14:                                               ; preds = %2
  %15 = load ptr, ptr %4, align 8, !tbaa !15
  %16 = call i32 @memcmp(ptr noundef %15, ptr noundef @.str.20, i64 noundef 6) #13
  %17 = icmp ne i32 %16, 0
  br i1 %17, label %18, label %19

18:                                               ; preds = %14
  store i64 0, ptr %3, align 8
  store i32 1, ptr %8, align 4
  br label %114

19:                                               ; preds = %14
  br label %20

20:                                               ; preds = %32, %19
  %21 = load ptr, ptr %4, align 8, !tbaa !15
  %22 = load ptr, ptr %5, align 8, !tbaa !15
  %23 = icmp ult ptr %21, %22
  br i1 %23, label %24, label %30

24:                                               ; preds = %20
  %25 = load ptr, ptr %4, align 8, !tbaa !15
  %26 = getelementptr inbounds nuw i8, ptr %25, i32 1
  store ptr %26, ptr %4, align 8, !tbaa !15
  %27 = load i8, ptr %25, align 1, !tbaa !19
  %28 = sext i8 %27 to i32
  %29 = icmp ne i32 %28, 10
  br label %30

30:                                               ; preds = %24, %20
  %31 = phi i1 [ false, %20 ], [ %29, %24 ]
  br i1 %31, label %32, label %33

32:                                               ; preds = %30
  br label %20, !llvm.loop !108

33:                                               ; preds = %30
  %34 = load ptr, ptr %4, align 8, !tbaa !15
  %35 = getelementptr inbounds i8, ptr %34, i64 9
  %36 = load ptr, ptr %5, align 8, !tbaa !15
  %37 = icmp uge ptr %35, %36
  br i1 %37, label %38, label %39

38:                                               ; preds = %33
  store i64 0, ptr %3, align 8
  store i32 1, ptr %8, align 4
  br label %114

39:                                               ; preds = %33
  %40 = load ptr, ptr %4, align 8, !tbaa !15
  %41 = call i32 @memcmp(ptr noundef %40, ptr noundef @.str.42, i64 noundef 9) #13
  %42 = icmp ne i32 %41, 0
  br i1 %42, label %43, label %44

43:                                               ; preds = %39
  store i64 0, ptr %3, align 8
  store i32 1, ptr %8, align 4
  br label %114

44:                                               ; preds = %39
  %45 = load ptr, ptr %4, align 8, !tbaa !15
  %46 = load ptr, ptr %5, align 8, !tbaa !15
  %47 = load ptr, ptr %4, align 8, !tbaa !15
  %48 = ptrtoint ptr %46 to i64
  %49 = ptrtoint ptr %47 to i64
  %50 = sub i64 %48, %49
  %51 = call ptr @memchr(ptr noundef %45, i32 noundef 10, i64 noundef %50) #13
  store ptr %51, ptr %7, align 8, !tbaa !15
  %52 = load ptr, ptr %7, align 8, !tbaa !15
  %53 = icmp ne ptr %52, null
  br i1 %53, label %55, label %54

54:                                               ; preds = %44
  store i64 0, ptr %3, align 8
  store i32 1, ptr %8, align 4
  br label %114

55:                                               ; preds = %44
  %56 = load ptr, ptr %7, align 8, !tbaa !15
  store ptr %56, ptr %6, align 8, !tbaa !15
  br label %57

57:                                               ; preds = %69, %55
  %58 = load ptr, ptr %6, align 8, !tbaa !15
  %59 = load ptr, ptr %4, align 8, !tbaa !15
  %60 = icmp ugt ptr %58, %59
  br i1 %60, label %61, label %67

61:                                               ; preds = %57
  %62 = load ptr, ptr %6, align 8, !tbaa !15
  %63 = getelementptr inbounds i8, ptr %62, i64 -1
  %64 = load i8, ptr %63, align 1, !tbaa !19
  %65 = sext i8 %64 to i32
  %66 = icmp ne i32 %65, 62
  br label %67

67:                                               ; preds = %61, %57
  %68 = phi i1 [ false, %57 ], [ %66, %61 ]
  br i1 %68, label %69, label %72

69:                                               ; preds = %67
  %70 = load ptr, ptr %6, align 8, !tbaa !15
  %71 = getelementptr inbounds i8, ptr %70, i32 -1
  store ptr %71, ptr %6, align 8, !tbaa !15
  br label %57, !llvm.loop !109

72:                                               ; preds = %67
  %73 = load ptr, ptr %6, align 8, !tbaa !15
  %74 = load ptr, ptr %4, align 8, !tbaa !15
  %75 = icmp eq ptr %73, %74
  br i1 %75, label %76, label %77

76:                                               ; preds = %72
  store i64 0, ptr %3, align 8
  store i32 1, ptr %8, align 4
  br label %114

77:                                               ; preds = %72
  br label %78

78:                                               ; preds = %93, %77
  %79 = load ptr, ptr %6, align 8, !tbaa !15
  %80 = load ptr, ptr %7, align 8, !tbaa !15
  %81 = icmp ult ptr %79, %80
  br i1 %81, label %82, label %91

82:                                               ; preds = %78
  %83 = load ptr, ptr %6, align 8, !tbaa !15
  %84 = load i8, ptr %83, align 1, !tbaa !19
  %85 = zext i8 %84 to i64
  %86 = getelementptr inbounds nuw [256 x i8], ptr @sane_ctype, i64 0, i64 %85
  %87 = load i8, ptr %86, align 1, !tbaa !19
  %88 = zext i8 %87 to i32
  %89 = and i32 %88, 1
  %90 = icmp ne i32 %89, 0
  br label %91

91:                                               ; preds = %82, %78
  %92 = phi i1 [ false, %78 ], [ %90, %82 ]
  br i1 %92, label %93, label %96

93:                                               ; preds = %91
  %94 = load ptr, ptr %6, align 8, !tbaa !15
  %95 = getelementptr inbounds nuw i8, ptr %94, i32 1
  store ptr %95, ptr %6, align 8, !tbaa !15
  br label %78, !llvm.loop !110

96:                                               ; preds = %91
  %97 = load ptr, ptr %6, align 8, !tbaa !15
  %98 = load i8, ptr %97, align 1, !tbaa !19
  %99 = zext i8 %98 to i64
  %100 = getelementptr inbounds nuw [256 x i8], ptr @sane_ctype, i64 0, i64 %99
  %101 = load i8, ptr %100, align 1, !tbaa !19
  %102 = zext i8 %101 to i32
  %103 = and i32 %102, 2
  %104 = icmp ne i32 %103, 0
  br i1 %104, label %111, label %105

105:                                              ; preds = %96
  %106 = load ptr, ptr %6, align 8, !tbaa !15
  %107 = load i8, ptr %106, align 1, !tbaa !19
  %108 = sext i8 %107 to i32
  %109 = icmp ne i32 %108, 45
  br i1 %109, label %110, label %111

110:                                              ; preds = %105
  store i64 0, ptr %3, align 8
  store i32 1, ptr %8, align 4
  br label %114

111:                                              ; preds = %105, %96
  %112 = load ptr, ptr %6, align 8, !tbaa !15
  %113 = call i64 @strtoumax(ptr noundef %112, ptr noundef null, i32 noundef 10) #11
  store i64 %113, ptr %3, align 8
  store i32 1, ptr %8, align 4
  br label %114

114:                                              ; preds = %111, %110, %76, %54, %43, %38, %18, %13
  call void @llvm.lifetime.end.p0(i64 8, ptr %7) #11
  call void @llvm.lifetime.end.p0(i64 8, ptr %6) #11
  %115 = load i64, ptr %3, align 8
  ret i64 %115
}