; Function Attrs: nounwind uwtable
define internal fastcc i64 @parse_commit_date(ptr noundef %0, ptr noundef %1) unnamed_addr #0 {
  %3 = getelementptr inbounds nuw i8, ptr %0, i64 6
  %.not = icmp ult ptr %3, %1
  br i1 %.not, label %4, label %36

4:                                                ; preds = %2
  %bcmp = tail call i32 @bcmp(ptr noundef nonnull dereferenceable(6) %0, ptr noundef nonnull dereferenceable(6) @.str.20, i64 6)
  %.not36 = icmp eq i32 %bcmp, 0
  br i1 %.not36, label %.preheader47, label %36

.preheader47:                                     ; preds = %4, %6
  %.032 = phi ptr [ %7, %6 ], [ %0, %4 ]
  %5 = icmp ult ptr %.032, %1
  br i1 %5, label %6, label %.critedge

6:                                                ; preds = %.preheader47
  %7 = getelementptr inbounds nuw i8, ptr %.032, i64 1
  %8 = load i8, ptr %.032, align 1, !tbaa !11
  %.not37 = icmp eq i8 %8, 10
  br i1 %.not37, label %.critedge, label %.preheader47, !llvm.loop !94

.critedge:                                        ; preds = %.preheader47, %6
  %.133 = phi ptr [ %7, %6 ], [ %.032, %.preheader47 ]
  %9 = getelementptr inbounds nuw i8, ptr %.133, i64 9
  %.not38 = icmp ult ptr %9, %1
  br i1 %.not38, label %10, label %36

10:                                               ; preds = %.critedge
  %bcmp39 = tail call i32 @bcmp(ptr noundef nonnull dereferenceable(9) %.133, ptr noundef nonnull dereferenceable(9) @.str.42, i64 9)
  %.not40 = icmp eq i32 %bcmp39, 0
  br i1 %.not40, label %11, label %36

11:                                               ; preds = %10
  %12 = ptrtoint ptr %1 to i64
  %13 = ptrtoint ptr %.133 to i64
  %14 = sub i64 %12, %13
  %15 = tail call ptr @memchr(ptr noundef nonnull %.133, i32 noundef 10, i64 noundef %14) #26
  %.not41 = icmp eq ptr %15, null
  br i1 %.not41, label %36, label %.preheader46

.preheader46:                                     ; preds = %11, %17
  %.031 = phi ptr [ %18, %17 ], [ %15, %11 ]
  %16 = icmp ugt ptr %.031, %.133
  br i1 %16, label %17, label %.critedge2

17:                                               ; preds = %.preheader46
  %18 = getelementptr inbounds i8, ptr %.031, i64 -1
  %19 = load i8, ptr %18, align 1, !tbaa !11
  %.not42 = icmp eq i8 %19, 62
  br i1 %.not42, label %.critedge2, label %.preheader46, !llvm.loop !95

.critedge2:                                       ; preds = %.preheader46, %17
  %20 = icmp eq ptr %.031, %.133
  br i1 %20, label %36, label %.preheader

.preheader:                                       ; preds = %.critedge2
  %21 = icmp ult ptr %.031, %15
  br i1 %21, label %.lr.ph, label %.critedge4

.lr.ph:                                           ; preds = %.preheader, %27
  %.148 = phi ptr [ %28, %27 ], [ %.031, %.preheader ]
  %22 = load i8, ptr %.148, align 1, !tbaa !11
  %23 = zext i8 %22 to i64
  %24 = getelementptr inbounds nuw [256 x i8], ptr @sane_ctype, i64 0, i64 %23
  %25 = load i8, ptr %24, align 1, !tbaa !11
  %26 = and i8 %25, 1
  %.not43 = icmp eq i8 %26, 0
  br i1 %.not43, label %.critedge4, label %27

27:                                               ; preds = %.lr.ph
  %28 = getelementptr inbounds nuw i8, ptr %.148, i64 1
  %exitcond.not = icmp eq ptr %28, %15
  br i1 %exitcond.not, label %.critedge4, label %.lr.ph, !llvm.loop !96

.critedge4:                                       ; preds = %.lr.ph, %27, %.preheader
  %.1.lcssa = phi ptr [ %.031, %.preheader ], [ %15, %27 ], [ %.148, %.lr.ph ]
  %29 = load i8, ptr %.1.lcssa, align 1, !tbaa !11
  %30 = zext i8 %29 to i64
  %31 = getelementptr inbounds nuw [256 x i8], ptr @sane_ctype, i64 0, i64 %30
  %32 = load i8, ptr %31, align 1, !tbaa !11
  %33 = and i8 %32, 2
  %.not44 = icmp ne i8 %33, 0
  %.not45 = icmp eq i8 %29, 45
  %or.cond = or i1 %.not45, %.not44
  br i1 %or.cond, label %34, label %36

34:                                               ; preds = %.critedge4
  %35 = tail call i64 @strtoumax(ptr noundef nonnull %.1.lcssa, ptr noundef null, i32 noundef 10) #24
  br label %36

36:                                               ; preds = %.critedge4, %.critedge2, %11, %10, %.critedge, %4, %2, %34
  %.0 = phi i64 [ %35, %34 ], [ 0, %2 ], [ 0, %4 ], [ 0, %.critedge ], [ 0, %10 ], [ 0, %11 ], [ 0, %.critedge2 ], [ 0, %.critedge4 ]
  ret i64 %.0
}